(dp1
S'header'
p2
(dp3
Vdescription
p4
(dp5
Va
VEinstein A-coefficient in s-1
p6
sVglobal_upper_quanta
p7
VElectronic and vibrational quantum numbers and labels for the upper state of a transition
p8
sVgamma_air
p9
VAir-broadened Lorentzian half-width at half-maximum at p = 1 atm and T = 296 K
p10
sVgp
p11
VUpper state degeneracy
p12
sVelower
p13
VLower-state energy
p14
sVglobal_lower_quanta
p15
VElectronic and vibrational quantum numbers and labels for the lower state of a transition
p16
sVsw
p17
VLine intensity, multiplied by isotopologue abundance, at T = 296 K
p18
sVn_air
p19
VTemperature exponent for the air-broadened HWHM
p20
sVlocal_iso_id
p21
VInteger ID of a particular Isotopologue, unique only to a given molecule, in order or abundance (1 = most abundant)
p22
sVline_mixing_flag
p23
VA flag indicating the presence of additional data and code relating to line-mixing
p24
sVdelta_air
p25
VPressure shift induced by air, referred to p=1 atm
p26
sVlocal_lower_quanta
p27
VRotational, hyperfine and other quantum numbers and labels for the lower state of a transition
p28
sVlocal_upper_quanta
p29
VRotational, hyperfine and other quantum numbers and labels for the upper state of a transition
p30
sViref
p31
VOrdered list of reference identifiers for transition parameters
p32
sVierr
p33
VOrdered list of indices corresponding to uncertainty estimates of transition parameters
p34
sVmolec_id
p35
VThe HITRAN integer ID for this molecule in all its isotopologue forms
p36
sVgpp
p37
VLower state degeneracy
p38
sVnu
p39
VTransition wavenumber
p40
sVgamma_self
p41
VSelf-broadened HWHM at 1 atm pressure and 296 K
p42
ssVformat
p43
(dp44
Vgamma_air
p45
V%5.4f
p46
sVgp
p47
V%7.1f
p48
sVelower
p49
V%10.4f
p50
sVglobal_lower_quanta
p51
V%15s
p52
sVdelta_air
p53
V%8.6f
p54
sVierr
p55
V%6s
p56
sVlocal_lower_quanta
p57
V%15s
p58
sVlocal_upper_quanta
p59
V%15s
p60
sViref
p61
V%12s
p62
sVa
V%10.3E
p63
sVglobal_upper_quanta
p64
V%15s
p65
sVsw
p66
V%10.3E
p67
sVn_air
p68
V%4.2f
p69
sVlocal_iso_id
p70
V%1d
p71
sVline_mixing_flag
p72
V%1s
p73
sVmolec_id
p74
V%2d
p75
sVgpp
p76
V%7.1f
p77
sVnu
p78
V%12.6f
p79
sVgamma_self
p80
V%5.3f
p81
ssVdefault
p82
(dp83
Vgamma_air
p84
F0
sVgp
p85
VFFF
p86
sVelower
p87
F0
sVglobal_lower_quanta
p88
V000
p89
sVdelta_air
p90
F0
sVierr
p91
VEEE
p92
sVlocal_lower_quanta
p93
V000
p94
sVlocal_upper_quanta
p95
V000
p96
sViref
p97
VEEE
p98
sVa
F0
sVglobal_upper_quanta
p99
V000
p100
sVsw
p101
F0
sVn_air
p102
F0
sVlocal_iso_id
p103
I0
sVline_mixing_flag
p104
VEEE
p105
sVmolec_id
p106
I0
sVgpp
p107
VFFF
p108
sVnu
p109
F0
sVgamma_self
p110
F0
ssVtable_type
p111
Vcolumn-fixed
p112
sVsize_in_bytes
p113
I-1
sVorder
p114
(lp115
Vmolec_id
p116
aVlocal_iso_id
p117
aVnu
p118
aVsw
p119
aVa
aVgamma_air
p120
aVgamma_self
p121
aVelower
p122
aVn_air
p123
aVdelta_air
p124
aVglobal_upper_quanta
p125
aVglobal_lower_quanta
p126
aVlocal_upper_quanta
p127
aVlocal_lower_quanta
p128
aVierr
p129
aViref
p130
aVline_mixing_flag
p131
aVgp
p132
aVgpp
p133
asVtable_name
p134
VCO
p135
sVnumber_of_rows
p136
I189
ssS'data'
p137
(dp138
Va
(lp139
F28.850000000000001
aF14.460000000000001
aF29.079999999999998
aF14.57
aF29.289999999999999
aF14.68
aF29.510000000000002
aF14.789999999999999
aF29.73
aF14.9
aF29.949999999999999
aF15.02
aF30.18
aF15.130000000000001
aF30.420000000000002
aF15.24
aF30.66
aF15.359999999999999
aF30.91
aF15.470000000000001
aF31.149999999999999
aF15.59
aF31.399999999999999
aF15.710000000000001
aF31.68
aF15.84
aF31.960000000000001
aF15.960000000000001
aF32.240000000000002
aF32.539999999999999
aF16.079999999999998
aF32.880000000000003
aF16.210000000000001
aF33.219999999999999
aF16.350000000000001
aF33.630000000000003
aF16.48
aF34.07
aF16.629999999999999
aF34.609999999999999
aF16.780000000000001
aF35.240000000000002
aF16.940000000000001
aF36.119999999999997
aF17.109999999999999
aF37.359999999999999
aF17.300000000000001
aF39.450000000000003
aF17.5
aF44.100000000000001
aF17.739999999999998
aF66.489999999999995
aF18.010000000000002
aF18.350000000000001
aF22.41
aF18.800000000000001
aF27.050000000000001
aF19.449999999999999
aF29.120000000000001
aF20.539999999999999
aF30.370000000000001
aF31.239999999999998
aF22.949999999999999
aF31.879999999999999
aF34.609999999999999
aF32.409999999999997
aF32.829999999999998
aF11.67
aF33.219999999999999
aF14.08
aF33.560000000000002
aF15.17
aF33.880000000000003
aF15.82
aF34.189999999999998
aF16.260000000000002
aF34.460000000000001
aF16.600000000000001
aF34.729999999999997
aF16.870000000000001
aF34.960000000000001
aF17.100000000000001
aF35.200000000000003
aF35.43
aF17.309999999999999
aF35.649999999999999
aF17.489999999999998
aF35.869999999999997
aF17.640000000000001
aF36.079999999999998
aF17.789999999999999
aF36.289999999999999
aF17.949999999999999
aF36.490000000000002
aF18.09
aF36.700000000000003
aF18.210000000000001
aF36.880000000000003
aF18.329999999999998
aF37.07
aF37.259999999999998
aF18.449999999999999
aF37.439999999999998
aF18.579999999999998
aF37.619999999999997
aF18.690000000000001
aF37.810000000000002
aF18.800000000000001
aF37.979999999999997
aF18.91
aF38.149999999999999
aF19.010000000000002
aF38.32
aF19.120000000000001
aF38.490000000000002
aF38.659999999999997
aF19.219999999999999
aF38.829999999999998
aF19.329999999999998
aF39
aF19.43
aF39.159999999999997
aF19.52
aF39.32
aF19.620000000000001
aF39.479999999999997
aF39.630000000000003
aF19.719999999999999
aF39.780000000000001
aF19.800000000000001
aF39.939999999999998
aF19.899999999999999
aF40.109999999999999
aF19.989999999999998
aF40.219999999999999
aF20.07
aF40.369999999999997
aF40.520000000000003
aF20.170000000000002
aF40.649999999999999
aF20.260000000000002
aF40.799999999999997
aF20.34
aF40.93
aF41.060000000000002
aF20.43
aF41.189999999999998
aF20.510000000000002
aF41.310000000000002
aF20.600000000000001
aF41.469999999999999
aF41.590000000000003
aF20.68
aF41.689999999999998
aF20.760000000000002
aF41.82
aF20.84
aF41.939999999999998
aF42.07
aF20.920000000000002
aF42.170000000000002
aF20.989999999999998
aF42.299999999999997
aF42.369999999999997
aF21.07
aF21.149999999999999
aF21.219999999999999
aF21.300000000000001
aF21.370000000000001
aF21.449999999999999
aF21.510000000000002
aF21.59
aF21.66
aF21.719999999999999
aF21.789999999999999
aF21.850000000000001
aF21.920000000000002
aF21.98
aF22.039999999999999
aF22.100000000000001
aF22.16
aF22.219999999999999
aF22.280000000000001
aF22.34
aF22.390000000000001
aF22.449999999999999
aF22.489999999999998
aF22.550000000000001
aF22.600000000000001
asg120
(lp140
F0.045699999999999998
aF0.042999999999999997
aF0.046399999999999997
aF0.0436
aF0.046899999999999997
aF0.0441
aF0.047500000000000001
aF0.044600000000000001
aF0.048300000000000003
aF0.045100000000000001
aF0.049099999999999998
aF0.045699999999999998
aF0.050000000000000003
aF0.046399999999999997
aF0.050999999999999997
aF0.046899999999999997
aF0.051900000000000002
aF0.047500000000000001
aF0.052699999999999997
aF0.048300000000000003
aF0.053499999999999999
aF0.049099999999999998
aF0.054199999999999998
aF0.050000000000000003
aF0.054899999999999997
aF0.050999999999999997
aF0.055500000000000001
aF0.051900000000000002
aF0.056099999999999997
aF0.0567
aF0.052699999999999997
aF0.057299999999999997
aF0.053499999999999999
aF0.058000000000000003
aF0.054199999999999998
aF0.058900000000000001
aF0.054899999999999997
aF0.059900000000000002
aF0.055500000000000001
aF0.061199999999999997
aF0.056099999999999997
aF0.062899999999999998
aF0.0567
aF0.065000000000000002
aF0.057299999999999997
aF0.067599999999999993
aF0.058000000000000003
aF0.070900000000000005
aF0.058900000000000001
aF0.074800000000000005
aF0.059900000000000002
aF0.079699999999999993
aF0.061199999999999997
aF0.062899999999999998
aF0.079699999999999993
aF0.065000000000000002
aF0.074800000000000005
aF0.067599999999999993
aF0.070900000000000005
aF0.070900000000000005
aF0.067599999999999993
aF0.065000000000000002
aF0.074800000000000005
aF0.062899999999999998
aF0.079699999999999993
aF0.061199999999999997
aF0.059900000000000002
aF0.079699999999999993
aF0.058900000000000001
aF0.074800000000000005
aF0.058000000000000003
aF0.070900000000000005
aF0.057299999999999997
aF0.067599999999999993
aF0.0567
aF0.065000000000000002
aF0.056099999999999997
aF0.062899999999999998
aF0.055500000000000001
aF0.061199999999999997
aF0.054899999999999997
aF0.059900000000000002
aF0.054199999999999998
aF0.053499999999999999
aF0.058900000000000001
aF0.052699999999999997
aF0.058000000000000003
aF0.051900000000000002
aF0.057299999999999997
aF0.050999999999999997
aF0.0567
aF0.050000000000000003
aF0.056099999999999997
aF0.049099999999999998
aF0.055500000000000001
aF0.048300000000000003
aF0.054899999999999997
aF0.047500000000000001
aF0.054199999999999998
aF0.046899999999999997
aF0.046399999999999997
aF0.053499999999999999
aF0.045699999999999998
aF0.052699999999999997
aF0.045100000000000001
aF0.051900000000000002
aF0.044600000000000001
aF0.050999999999999997
aF0.0441
aF0.050000000000000003
aF0.0436
aF0.049099999999999998
aF0.042999999999999997
aF0.048300000000000003
aF0.042500000000000003
aF0.042000000000000003
aF0.047500000000000001
aF0.042000000000000003
aF0.046899999999999997
aF0.042000000000000003
aF0.046399999999999997
aF0.042000000000000003
aF0.045699999999999998
aF0.042000000000000003
aF0.045100000000000001
aF0.042000000000000003
aF0.042000000000000003
aF0.044600000000000001
aF0.042000000000000003
aF0.0441
aF0.042000000000000003
aF0.0436
aF0.042000000000000003
aF0.042999999999999997
aF0.042000000000000003
aF0.042500000000000003
aF0.042000000000000003
aF0.042000000000000003
aF0.042000000000000003
aF0.042000000000000003
aF0.042000000000000003
aF0.042000000000000003
aF0.042000000000000003
aF0.042000000000000003
aF0.042000000000000003
aF0.042000000000000003
aF0.042000000000000003
aF0.042000000000000003
aF0.042000000000000003
aF0.042000000000000003
aF0.042000000000000003
aF0.042000000000000003
aF0.042000000000000003
aF0.042000000000000003
aF0.042000000000000003
aF0.042000000000000003
aF0.042000000000000003
aF0.042000000000000003
aF0.042000000000000003
aF0.042000000000000003
aF0.042000000000000003
aF0.042000000000000003
aF0.042000000000000003
aF0.042000000000000003
aF0.042000000000000003
aF0.042000000000000003
aF0.042000000000000003
aF0.042000000000000003
aF0.042000000000000003
aF0.042000000000000003
aF0.042000000000000003
aF0.042000000000000003
aF0.042000000000000003
aF0.042000000000000003
aF0.042000000000000003
aF0.042000000000000003
aF0.042000000000000003
aF0.042000000000000003
aF0.042000000000000003
aF0.042000000000000003
aF0.042000000000000003
aF0.042000000000000003
aF0.042000000000000003
aF0.042000000000000003
aF0.042000000000000003
aF0.042000000000000003
aF0.042000000000000003
aF0.042000000000000003
aF0.042000000000000003
asg130
(lp141
S' 2 2 2 2 1 1'
p142
aS' 2 2 2 2 1 1'
p143
aS' 2 2 2 2 1 1'
p144
aS' 2 2 2 2 1 1'
p145
aS' 2 2 2 2 1 1'
p146
aS' 2 2 2 2 1 1'
p147
aS' 2 2 2 2 1 1'
p148
aS' 2 2 2 2 1 1'
p149
aS' 2 2 2 2 1 1'
p150
aS' 2 2 2 2 1 1'
p151
aS' 2 2 2 2 1 1'
p152
aS' 2 2 2 2 1 1'
p153
aS' 2 2 2 2 1 1'
p154
aS' 2 2 2 2 1 1'
p155
aS' 2 2 2 2 1 1'
p156
aS' 2 2 2 2 1 1'
p157
aS' 2 2 2 2 1 1'
p158
aS' 2 2 2 2 1 1'
p159
aS' 2 2 2 2 1 1'
p160
aS' 2 2 2 2 1 1'
p161
aS' 2 2 2 2 1 1'
p162
aS' 2 2 2 2 1 1'
p163
aS' 2 2 2 2 1 1'
p164
aS' 2 2 2 2 1 1'
p165
aS' 2 2 2 2 1 1'
p166
aS' 2 2 2 2 1 1'
p167
aS' 2 2 2 2 1 1'
p168
aS' 2 2 2 2 1 1'
p169
aS' 2 2 2 2 1 1'
p170
aS' 2 2 2 2 1 1'
p171
aS' 2 2 2 2 1 1'
p172
aS' 2 2 2 2 1 1'
p173
aS' 2 2 2 2 1 1'
p174
aS' 2 2 2 2 1 1'
p175
aS' 2 2 2 2 1 1'
p176
aS' 2 2 2 2 1 1'
p177
aS' 2 2 2 2 1 1'
p178
aS' 2 2 2 2 1 1'
p179
aS' 2 2 2 2 1 1'
p180
aS' 2 2 2 2 1 1'
p181
aS' 2 2 2 2 1 1'
p182
aS' 2 2 2 2 1 1'
p183
aS' 2 2 2 2 1 1'
p184
aS' 2 2 2 2 1 1'
p185
aS' 2 2 2 2 1 1'
p186
aS' 2 2 2 2 1 1'
p187
aS' 2 2 2 2 1 1'
p188
aS' 2 2 2 2 1 1'
p189
aS' 2 2 2 2 1 1'
p190
aS' 2 2 2 2 1 1'
p191
aS' 2 2 2 2 1 1'
p192
aS' 2 2 2 2 1 1'
p193
aS' 2 2 2 2 1 1'
p194
aS' 2 2 2 2 1 1'
p195
aS' 2 2 2 2 1 1'
p196
aS' 2 2 2 2 1 1'
p197
aS' 2 2 2 2 1 1'
p198
aS' 2 2 2 2 1 1'
p199
aS' 2 2 2 2 1 1'
p200
aS' 2 2 2 2 1 1'
p201
aS' 2 2 2 2 1 1'
p202
aS' 2 2 2 2 1 1'
p203
aS' 2 2 2 2 1 1'
p204
aS' 2 2 2 2 1 1'
p205
aS' 2 2 2 2 1 1'
p206
aS' 2 2 2 2 1 1'
p207
aS' 2 2 2 2 1 1'
p208
aS' 2 2 2 2 1 1'
p209
aS' 2 2 2 2 1 1'
p210
aS' 2 2 2 2 1 1'
p211
aS' 2 2 2 2 1 1'
p212
aS' 2 2 2 2 1 1'
p213
aS' 2 2 2 2 1 1'
p214
aS' 2 2 2 2 1 1'
p215
aS' 2 2 2 2 1 1'
p216
aS' 2 2 2 2 1 1'
p217
aS' 2 2 2 2 1 1'
p218
aS' 2 2 2 2 1 1'
p219
aS' 2 2 2 2 1 1'
p220
aS' 2 2 2 2 1 1'
p221
aS' 2 2 2 2 1 1'
p222
aS' 2 2 2 2 1 1'
p223
aS' 2 2 2 2 1 1'
p224
aS' 2 2 2 2 1 1'
p225
aS' 2 2 2 2 1 1'
p226
aS' 2 2 2 2 1 1'
p227
aS' 2 2 2 2 1 1'
p228
aS' 2 2 2 2 1 1'
p229
aS' 2 2 2 2 1 1'
p230
aS' 2 2 2 2 1 1'
p231
aS' 2 2 2 2 1 1'
p232
aS' 2 2 2 2 1 1'
p233
aS' 2 2 2 2 1 1'
p234
aS' 2 2 2 2 1 1'
p235
aS' 2 2 2 2 1 1'
p236
aS' 2 2 2 2 1 1'
p237
aS' 2 2 2 2 1 1'
p238
aS' 2 2 2 2 1 1'
p239
aS' 2 2 2 2 1 1'
p240
aS' 2 2 2 2 1 1'
p241
aS' 2 2 2 2 1 1'
p242
aS' 2 2 2 2 1 1'
p243
aS' 2 2 2 2 1 1'
p244
aS' 2 2 2 2 1 1'
p245
aS' 2 2 2 2 1 1'
p246
aS' 2 2 2 2 1 1'
p247
aS' 2 2 2 2 1 1'
p248
aS' 2 2 2 2 1 1'
p249
aS' 2 2 2 2 1 1'
p250
aS' 2 2 2 2 1 1'
p251
aS' 2 2 2 2 1 1'
p252
aS' 2 2 2 2 1 1'
p253
aS' 2 2 2 2 1 1'
p254
aS' 2 2 2 2 1 1'
p255
aS' 2 2 2 2 1 1'
p256
aS' 2 2 2 2 1 1'
p257
aS' 2 2 2 2 1 1'
p258
aS' 2 2 2 2 1 1'
p259
aS' 2 2 2 2 1 1'
p260
aS' 2 2 2 2 1 1'
p261
aS' 2 2 2 2 1 1'
p262
aS' 2 2 2 2 1 1'
p263
aS' 2 2 2 2 1 1'
p264
aS' 2 2 2 2 1 1'
p265
aS' 2 2 2 2 1 1'
p266
aS' 2 2 2 2 1 1'
p267
aS' 2 2 2 2 1 1'
p268
aS' 2 2 2 2 1 1'
p269
aS' 2 2 2 2 1 1'
p270
aS' 2 2 2 2 1 1'
p271
aS' 2 2 2 2 1 1'
p272
aS' 2 2 2 2 1 1'
p273
aS' 2 2 2 2 1 1'
p274
aS' 2 2 2 2 1 1'
p275
aS' 2 2 2 2 1 1'
p276
aS' 2 2 2 2 1 1'
p277
aS' 2 2 2 2 1 1'
p278
aS' 2 2 2 2 1 1'
p279
aS' 2 2 2 2 1 1'
p280
aS' 2 2 2 2 1 1'
p281
aS' 2 2 2 2 1 1'
p282
aS' 2 2 2 2 1 1'
p283
aS' 2 2 2 2 1 1'
p284
aS' 2 2 2 2 1 1'
p285
aS' 2 2 2 2 1 1'
p286
aS' 2 2 2 2 1 1'
p287
aS' 2 2 2 2 1 1'
p288
aS' 2 2 2 2 1 1'
p289
aS' 2 2 2 2 1 1'
p290
aS' 2 2 2 2 1 1'
p291
aS' 2 2 2 2 1 1'
p292
aS' 2 2 2 2 1 1'
p293
aS' 2 2 2 2 1 1'
p294
aS' 2 2 2 2 1 1'
p295
aS' 2 2 2 2 1 1'
p296
aS' 2 2 2 2 1 1'
p297
aS' 2 2 2 2 1 1'
p298
aS' 2 2 2 2 1 1'
p299
aS' 2 2 2 2 1 1'
p300
aS' 2 2 2 2 1 1'
p301
aS' 2 2 2 2 1 1'
p302
aS' 2 2 2 2 1 1'
p303
aS' 2 2 2 2 1 1'
p304
aS' 2 2 2 2 1 1'
p305
aS' 2 2 2 2 1 1'
p306
aS' 2 2 2 2 1 1'
p307
aS' 2 2 2 2 1 1'
p308
aS' 2 2 2 2 1 1'
p309
aS' 2 2 2 2 1 1'
p310
aS' 2 2 2 2 1 1'
p311
aS' 2 2 2 2 1 1'
p312
aS' 2 2 2 2 1 1'
p313
aS' 2 2 2 2 1 1'
p314
aS' 2 2 2 2 1 1'
p315
aS' 2 2 2 2 1 1'
p316
aS' 2 2 2 2 1 1'
p317
aS' 2 2 2 2 1 1'
p318
aS' 2 2 2 2 1 1'
p319
aS' 2 2 2 2 1 1'
p320
aS' 2 2 2 2 1 1'
p321
aS' 2 2 2 2 1 1'
p322
aS' 2 2 2 2 1 1'
p323
aS' 2 2 2 2 1 1'
p324
aS' 2 2 2 2 1 1'
p325
aS' 2 2 2 2 1 1'
p326
aS' 2 2 2 2 1 1'
p327
aS' 2 2 2 2 1 1'
p328
aS' 2 2 2 2 1 1'
p329
aS' 2 2 2 2 1 1'
p330
asg132
(lp331
F53
aF63
aF51
aF61
aF49
aF59
aF47
aF57
aF45
aF55
aF43
aF53
aF41
aF51
aF39
aF49
aF37
aF47
aF35
aF45
aF33
aF43
aF31
aF41
aF29
aF39
aF27
aF37
aF25
aF23
aF35
aF21
aF33
aF19
aF31
aF17
aF29
aF15
aF27
aF13
aF25
aF11
aF23
aF9
aF21
aF7
aF19
aF5
aF17
aF3
aF15
aF1
aF13
aF11
aF3
aF9
aF5
aF7
aF7
aF5
aF9
aF11
aF3
aF13
aF1
aF15
aF17
aF3
aF19
aF5
aF21
aF7
aF23
aF9
aF25
aF11
aF27
aF13
aF29
aF15
aF31
aF17
aF33
aF35
aF19
aF37
aF21
aF39
aF23
aF41
aF25
aF43
aF27
aF45
aF29
aF47
aF31
aF49
aF33
aF51
aF53
aF35
aF55
aF37
aF57
aF39
aF59
aF41
aF61
aF43
aF63
aF45
aF65
aF47
aF67
aF69
aF49
aF71
aF51
aF73
aF53
aF75
aF55
aF77
aF57
aF79
aF81
aF59
aF83
aF61
aF85
aF63
aF87
aF65
aF89
aF67
aF91
aF93
aF69
aF95
aF71
aF97
aF73
aF99
aF101
aF75
aF103
aF77
aF105
aF79
aF107
aF109
aF81
aF111
aF83
aF113
aF85
aF115
aF117
aF87
aF119
aF89
aF121
aF123
aF91
aF93
aF95
aF97
aF99
aF101
aF103
aF105
aF107
aF109
aF111
aF113
aF115
aF117
aF119
aF121
aF123
aF125
aF127
aF129
aF131
aF133
aF135
aF137
aF139
asg122
(lp332
F3579.9751000000001
aF2023.3715
aF3477.5850999999998
aF1901.1307999999999
aF3378.9535999999998
aF1782.6623999999999
aF3284.0844999999999
aF1667.9709
aF3192.9814000000001
aF1557.0607
aF3105.6478999999999
aF1449.9358999999999
aF3022.0873000000001
aF1346.6007999999999
aF2942.3027999999999
aF1247.0591999999999
aF2866.2975000000001
aF1151.3150000000001
aF2794.0743000000002
aF1059.3717999999999
aF2725.6361000000002
aF971.23320000000001
aF2660.9854999999998
aF886.90239999999994
aF2600.1248999999998
aF806.38279999999997
aF2543.0567000000001
aF729.67740000000003
aF2489.7831000000001
aF2440.3062
aF656.78920000000005
aF2394.6279
aF587.72090000000003
aF2352.7498999999998
aF522.4751
aF2314.6738999999998
aF461.05450000000002
aF2280.4011999999998
aF403.46120000000002
aF2249.9333999999999
aF349.69760000000002
aF2223.2714000000001
aF299.76560000000001
aF2200.4164000000001
aF253.66720000000001
aF2181.3692000000001
aF211.4041
aF2166.1305000000002
aF172.97800000000001
aF2154.701
aF138.3904
aF2147.0810999999999
aF107.64239999999999
aF80.735399999999998
aF2143.2710999999999
aF57.670400000000001
aF2147.0810999999999
aF38.448099999999997
aF2154.701
aF23.069500000000001
aF2166.1305000000002
aF2181.3692000000001
aF11.535
aF2200.4164000000001
aF3.8450000000000002
aF2223.2714000000001
aF2249.9333999999999
aF0
aF2280.4011999999998
aF3.8450000000000002
aF2314.6738999999998
aF11.535
aF2352.7498999999998
aF23.069500000000001
aF2394.6279
aF38.448099999999997
aF2440.3062
aF57.670400000000001
aF2489.7831000000001
aF80.735399999999998
aF2543.0567000000001
aF107.64239999999999
aF2600.1248999999998
aF2660.9854999999998
aF138.3904
aF2725.6361000000002
aF172.97800000000001
aF2794.0743000000002
aF211.4041
aF2866.2975000000001
aF253.66720000000001
aF2942.3027999999999
aF299.76560000000001
aF3022.0873000000001
aF349.69760000000002
aF3105.6478999999999
aF403.46120000000002
aF3192.9814000000001
aF461.05450000000002
aF3284.0844999999999
aF3378.9535999999998
aF522.4751
aF3477.5850999999998
aF587.72090000000003
aF3579.9751000000001
aF656.78920000000005
aF3686.1197000000002
aF729.67740000000003
aF3796.0147999999999
aF806.38279999999997
aF3909.6561999999999
aF886.90239999999994
aF4027.0394000000001
aF971.23320000000001
aF4148.1599999999999
aF4273.0132000000003
aF1059.3717999999999
aF4401.5942999999997
aF1151.3150000000001
aF4533.8981999999996
aF1247.0591999999999
aF4669.9198999999999
aF1346.6007999999999
aF4809.6540000000005
aF1449.9358999999999
aF4953.0953
aF5100.2380999999996
aF1557.0607
aF5251.0767999999998
aF1667.9709
aF5405.6054999999997
aF1782.6623999999999
aF5563.8181999999997
aF1901.1307999999999
aF5725.7088999999996
aF2023.3715
aF5891.2712000000001
aF6060.4988000000003
aF2149.3798000000002
aF6233.3851000000004
aF2279.1509999999998
aF6409.9233999999997
aF2412.6801
aF6590.1068999999998
aF6773.9286000000002
aF2549.9618999999998
aF6961.3813
aF2690.9911999999999
aF7152.4579000000003
aF2835.7627000000002
aF7347.1508999999996
aF7545.4526999999998
aF2984.2705999999998
aF7747.3557000000001
aF3136.5095000000001
aF7952.8521000000001
aF3292.4733000000001
aF8161.9337999999998
aF8374.5926999999992
aF3452.1561999999999
aF8590.8207000000002
aF3615.5520999999999
aF8810.6093000000001
aF9033.9498999999996
aF3782.6545999999998
aF3953.4573999999998
aF4127.9539000000004
aF4306.1373999999996
aF4488.0011000000004
aF4673.5379999999996
aF4862.741
aF5055.6027999999997
aF5252.116
aF5452.2731999999996
aF5656.0664999999999
aF5863.4880999999996
aF6074.5302000000001
aF6289.1845999999996
aF6507.4429
aF6729.2969000000003
aF6954.7380000000003
aF7183.7575999999999
aF7416.3467000000001
aF7652.4965000000002
aF7892.1979000000001
aF8135.4416000000001
aF8382.2183000000005
aF8632.5185000000001
aF8886.3323999999993
asg125
(lp333
S'              2'
p334
aS'              1'
p335
aS'              2'
p336
aS'              1'
p337
aS'              2'
p338
aS'              1'
p339
aS'              2'
p340
aS'              1'
p341
aS'              2'
p342
aS'              1'
p343
aS'              2'
p344
aS'              1'
p345
aS'              2'
p346
aS'              1'
p347
aS'              2'
p348
aS'              1'
p349
aS'              2'
p350
aS'              1'
p351
aS'              2'
p352
aS'              1'
p353
aS'              2'
p354
aS'              1'
p355
aS'              2'
p356
aS'              1'
p357
aS'              2'
p358
aS'              1'
p359
aS'              2'
p360
aS'              1'
p361
aS'              2'
p362
aS'              2'
p363
aS'              1'
p364
aS'              2'
p365
aS'              1'
p366
aS'              2'
p367
aS'              1'
p368
aS'              2'
p369
aS'              1'
p370
aS'              2'
p371
aS'              1'
p372
aS'              2'
p373
aS'              1'
p374
aS'              2'
p375
aS'              1'
p376
aS'              2'
p377
aS'              1'
p378
aS'              2'
p379
aS'              1'
p380
aS'              2'
p381
aS'              1'
p382
aS'              2'
p383
aS'              1'
p384
aS'              2'
p385
aS'              1'
p386
aS'              1'
p387
aS'              2'
p388
aS'              1'
p389
aS'              2'
p390
aS'              1'
p391
aS'              2'
p392
aS'              1'
p393
aS'              2'
p394
aS'              2'
p395
aS'              1'
p396
aS'              2'
p397
aS'              1'
p398
aS'              2'
p399
aS'              2'
p400
aS'              1'
p401
aS'              2'
p402
aS'              1'
p403
aS'              2'
p404
aS'              1'
p405
aS'              2'
p406
aS'              1'
p407
aS'              2'
p408
aS'              1'
p409
aS'              2'
p410
aS'              1'
p411
aS'              2'
p412
aS'              1'
p413
aS'              2'
p414
aS'              1'
p415
aS'              2'
p416
aS'              2'
p417
aS'              1'
p418
aS'              2'
p419
aS'              1'
p420
aS'              2'
p421
aS'              1'
p422
aS'              2'
p423
aS'              1'
p424
aS'              2'
p425
aS'              1'
p426
aS'              2'
p427
aS'              1'
p428
aS'              2'
p429
aS'              1'
p430
aS'              2'
p431
aS'              1'
p432
aS'              2'
p433
aS'              2'
p434
aS'              1'
p435
aS'              2'
p436
aS'              1'
p437
aS'              2'
p438
aS'              1'
p439
aS'              2'
p440
aS'              1'
p441
aS'              2'
p442
aS'              1'
p443
aS'              2'
p444
aS'              1'
p445
aS'              2'
p446
aS'              1'
p447
aS'              2'
p448
aS'              2'
p449
aS'              1'
p450
aS'              2'
p451
aS'              1'
p452
aS'              2'
p453
aS'              1'
p454
aS'              2'
p455
aS'              1'
p456
aS'              2'
p457
aS'              1'
p458
aS'              2'
p459
aS'              2'
p460
aS'              1'
p461
aS'              2'
p462
aS'              1'
p463
aS'              2'
p464
aS'              1'
p465
aS'              2'
p466
aS'              1'
p467
aS'              2'
p468
aS'              1'
p469
aS'              2'
p470
aS'              2'
p471
aS'              1'
p472
aS'              2'
p473
aS'              1'
p474
aS'              2'
p475
aS'              1'
p476
aS'              2'
p477
aS'              2'
p478
aS'              1'
p479
aS'              2'
p480
aS'              1'
p481
aS'              2'
p482
aS'              1'
p483
aS'              2'
p484
aS'              2'
p485
aS'              1'
p486
aS'              2'
p487
aS'              1'
p488
aS'              2'
p489
aS'              1'
p490
aS'              2'
p491
aS'              2'
p492
aS'              1'
p493
aS'              2'
p494
aS'              1'
p495
aS'              2'
p496
aS'              2'
p497
aS'              1'
p498
aS'              1'
p499
aS'              1'
p500
aS'              1'
p501
aS'              1'
p502
aS'              1'
p503
aS'              1'
p504
aS'              1'
p505
aS'              1'
p506
aS'              1'
p507
aS'              1'
p508
aS'              1'
p509
aS'              1'
p510
aS'              1'
p511
aS'              1'
p512
aS'              1'
p513
aS'              1'
p514
aS'              1'
p515
aS'              1'
p516
aS'              1'
p517
aS'              1'
p518
aS'              1'
p519
aS'              1'
p520
aS'              1'
p521
aS'              1'
p522
asg119
(lp523
F1.292e-25
aF1.4849999999999999e-22
aF2.0519999999999999e-25
aF2.6119999999999998e-22
aF3.1930000000000001e-25
aF4.5060000000000002e-22
aF4.87e-25
aF7.622e-22
aF7.2829999999999996e-25
aF1.2640000000000001e-21
aF1.0669999999999999e-24
aF2.057e-21
aF1.5320000000000001e-24
aF3.28e-21
aF2.155e-24
aF5.1270000000000002e-21
aF2.9689999999999999e-24
aF7.8549999999999999e-21
aF4.0039999999999997e-24
aF1.179e-20
aF5.2839999999999997e-24
aF1.7350000000000001e-20
aF6.8229999999999996e-24
aF2.5009999999999999e-20
aF8.6179999999999995e-24
aF3.5309999999999997e-20
aF1.0640000000000001e-23
aF4.8800000000000001e-20
aF1.282e-23
aF1.508e-23
aF6.6010000000000005e-20
aF1.7299999999999999e-23
aF8.7389999999999995e-20
aF1.9310000000000001e-23
aF1.132e-19
aF2.0959999999999999e-23
aF1.4329999999999999e-19
aF2.205e-23
aF1.7739999999999999e-19
aF2.2419999999999999e-23
aF2.1439999999999999e-19
aF2.1910000000000001e-23
aF2.5280000000000001e-19
aF2.0450000000000001e-23
aF2.9050000000000001e-19
aF1.7980000000000001e-23
aF3.25e-19
aF1.4550000000000001e-23
aF3.5310000000000002e-19
aF1.028e-23
aF3.7219999999999998e-19
aF5.3419999999999999e-24
aF3.7890000000000001e-19
aF3.7089999999999999e-19
aF5.4629999999999998e-24
aF3.4639999999999999e-19
aF1.075e-23
aF3.0490000000000001e-19
aF1.5559999999999999e-23
aF2.4690000000000001e-19
aF1.9670000000000001e-23
aF2.288e-23
aF1.7449999999999999e-19
aF2.5069999999999999e-23
aF9.072e-20
aF2.623e-23
aF2.6369999999999999e-23
aF9.2839999999999996e-20
aF2.5630000000000001e-23
aF1.826e-19
aF2.415e-23
aF2.6430000000000001e-19
aF2.2120000000000001e-23
aF3.3390000000000001e-19
aF1.973e-23
aF3.8799999999999998e-19
aF1.7150000000000001e-23
aF4.249e-19
aF1.4550000000000001e-23
aF4.4400000000000001e-19
aF1.205e-23
aF4.4609999999999998e-19
aF9.7579999999999999e-24
aF7.7259999999999998e-24
aF4.3309999999999998e-19
aF5.9850000000000001e-24
aF4.075e-19
aF4.538e-24
aF3.7239999999999999e-19
aF3.368e-24
aF3.3140000000000002e-19
aF2.4489999999999999e-24
aF2.8760000000000001e-19
aF1.7439999999999998e-24
aF2.4349999999999999e-19
aF1.217e-24
aF2.0120000000000001e-19
aF8.3180000000000003e-25
aF1.625e-19
aF5.5739999999999998e-25
aF3.6620000000000002e-25
aF1.283e-19
aF2.3580000000000002e-25
aF9.9170000000000004e-20
aF1.4889999999999999e-25
aF7.4960000000000002e-20
aF9.2230000000000005e-26
aF5.5460000000000004e-20
aF5.602e-26
aF4.018e-20
aF3.3370000000000001e-26
aF2.851e-20
aF1.9499999999999999e-26
aF1.982e-20
aF1.1179999999999999e-26
aF6.289e-27
aF1.35e-20
aF3.471e-27
aF9.0109999999999993e-21
aF1.8799999999999998e-27
aF5.8949999999999999e-21
aF9.9899999999999998e-28
aF3.78e-21
aF5.2099999999999997e-28
aF2.3759999999999999e-21
aF2.6669999999999999e-28
aF1.34e-28
aF1.465e-21
aF6.6069999999999999e-29
aF8.8509999999999997e-22
aF3.199e-29
aF5.2470000000000001e-22
aF1.5209999999999999e-29
aF3.0509999999999998e-22
aF7.0890000000000003e-30
aF1.739e-22
aF3.2480000000000002e-30
aF1.4610000000000001e-30
aF9.7299999999999999e-23
aF6.45e-31
aF5.3399999999999994e-23
aF2.7970000000000001e-31
aF2.8749999999999998e-23
aF1.1909999999999999e-31
aF4.9790000000000005e-32
aF1.5189999999999999e-23
aF2.045e-32
aF7.8699999999999994e-24
aF8.2460000000000004e-33
aF4.0030000000000002e-24
aF3.2690000000000002e-33
aF1.272e-33
aF1.9979999999999999e-24
aF4.8590000000000002e-34
aF9.7870000000000008e-25
aF1.825e-34
aF4.7050000000000005e-25
aF6.7310000000000002e-35
aF2.44e-35
aF2.2200000000000001e-25
aF8.6859999999999999e-36
aF1.028e-25
aF3.0400000000000003e-36
aF1.044e-36
aF4.675e-26
aF2.0869999999999999e-26
aF9.1419999999999994e-27
aF3.9330000000000001e-27
aF1.6610000000000001e-27
aF6.8900000000000003e-28
aF2.8050000000000001e-28
aF1.122e-28
aF4.406e-29
aF1.6990000000000001e-29
aF6.4360000000000001e-30
aF2.394e-30
aF8.7489999999999997e-31
aF3.1399999999999998e-31
aF1.1069999999999999e-31
aF3.8350000000000001e-32
aF1.3050000000000001e-32
aF4.3629999999999997e-33
aF1.4330000000000001e-33
aF4.6260000000000004e-34
aF1.4670000000000001e-34
aF4.5729999999999998e-35
aF1.4e-35
aF4.215e-36
aF1.247e-36
asg123
(lp524
F0.67000000000000004
aF0.67000000000000004
aF0.67000000000000004
aF0.67000000000000004
aF0.67000000000000004
aF0.67000000000000004
aF0.67000000000000004
aF0.67000000000000004
aF0.67000000000000004
aF0.67000000000000004
aF0.67000000000000004
aF0.67000000000000004
aF0.67000000000000004
aF0.67000000000000004
aF0.67000000000000004
aF0.67000000000000004
aF0.67000000000000004
aF0.67000000000000004
aF0.68000000000000005
aF0.67000000000000004
aF0.68999999999999995
aF0.67000000000000004
aF0.69999999999999996
aF0.67000000000000004
aF0.70999999999999996
aF0.67000000000000004
aF0.71999999999999997
aF0.67000000000000004
aF0.72999999999999998
aF0.73999999999999999
aF0.68000000000000005
aF0.75
aF0.68999999999999995
aF0.75
aF0.69999999999999996
aF0.75
aF0.70999999999999996
aF0.75
aF0.71999999999999997
aF0.75
aF0.72999999999999998
aF0.73999999999999999
aF0.73999999999999999
aF0.73999999999999999
aF0.75
aF0.73999999999999999
aF0.75
aF0.73999999999999999
aF0.75
aF0.75
aF0.75
aF0.76000000000000001
aF0.75
aF0.73999999999999999
aF0.76000000000000001
aF0.73999999999999999
aF0.75
aF0.73999999999999999
aF0.73999999999999999
aF0.73999999999999999
aF0.73999999999999999
aF0.73999999999999999
aF0.75
aF0.73999999999999999
aF0.76000000000000001
aF0.75
aF0.75
aF0.76000000000000001
aF0.75
aF0.75
aF0.75
aF0.73999999999999999
aF0.75
aF0.73999999999999999
aF0.73999999999999999
aF0.73999999999999999
aF0.72999999999999998
aF0.73999999999999999
aF0.71999999999999997
aF0.75
aF0.70999999999999996
aF0.75
aF0.69999999999999996
aF0.68999999999999995
aF0.75
aF0.68000000000000005
aF0.75
aF0.67000000000000004
aF0.75
aF0.67000000000000004
aF0.73999999999999999
aF0.67000000000000004
aF0.72999999999999998
aF0.67000000000000004
aF0.71999999999999997
aF0.67000000000000004
aF0.70999999999999996
aF0.67000000000000004
aF0.69999999999999996
aF0.67000000000000004
aF0.67000000000000004
aF0.68999999999999995
aF0.67000000000000004
aF0.68000000000000005
aF0.67000000000000004
aF0.67000000000000004
aF0.67000000000000004
aF0.67000000000000004
aF0.67000000000000004
aF0.67000000000000004
aF0.67000000000000004
aF0.67000000000000004
aF0.67000000000000004
aF0.67000000000000004
aF0.67000000000000004
aF0.67000000000000004
aF0.67000000000000004
aF0.67000000000000004
aF0.67000000000000004
aF0.67000000000000004
aF0.67000000000000004
aF0.67000000000000004
aF0.67000000000000004
aF0.67000000000000004
aF0.67000000000000004
aF0.67000000000000004
aF0.67000000000000004
aF0.67000000000000004
aF0.67000000000000004
aF0.67000000000000004
aF0.67000000000000004
aF0.67000000000000004
aF0.67000000000000004
aF0.67000000000000004
aF0.67000000000000004
aF0.67000000000000004
aF0.67000000000000004
aF0.67000000000000004
aF0.67000000000000004
aF0.67000000000000004
aF0.67000000000000004
aF0.67000000000000004
aF0.67000000000000004
aF0.67000000000000004
aF0.67000000000000004
aF0.67000000000000004
aF0.67000000000000004
aF0.67000000000000004
aF0.67000000000000004
aF0.67000000000000004
aF0.67000000000000004
aF0.67000000000000004
aF0.67000000000000004
aF0.67000000000000004
aF0.67000000000000004
aF0.67000000000000004
aF0.67000000000000004
aF0.67000000000000004
aF0.67000000000000004
aF0.67000000000000004
aF0.67000000000000004
aF0.67000000000000004
aF0.67000000000000004
aF0.67000000000000004
aF0.67000000000000004
aF0.67000000000000004
aF0.67000000000000004
aF0.67000000000000004
aF0.67000000000000004
aF0.67000000000000004
aF0.67000000000000004
aF0.67000000000000004
aF0.67000000000000004
aF0.67000000000000004
aF0.67000000000000004
aF0.67000000000000004
aF0.67000000000000004
aF0.67000000000000004
aF0.67000000000000004
aF0.67000000000000004
aF0.67000000000000004
aF0.67000000000000004
aF0.67000000000000004
aF0.67000000000000004
aF0.67000000000000004
aF0.67000000000000004
aF0.67000000000000004
aF0.67000000000000004
aF0.67000000000000004
asg129
(lp525
S'466623'
p526
aS'466623'
p527
aS'467623'
p528
aS'466623'
p529
aS'467623'
p530
aS'466623'
p531
aS'467623'
p532
aS'466623'
p533
aS'467623'
p534
aS'466623'
p535
aS'467623'
p536
aS'466623'
p537
aS'467623'
p538
aS'467623'
p539
aS'467663'
p540
aS'467623'
p541
aS'467663'
p542
aS'467623'
p543
aS'467663'
p544
aS'467623'
p545
aS'467663'
p546
aS'467623'
p547
aS'467663'
p548
aS'467623'
p549
aS'467663'
p550
aS'467663'
p551
aS'467663'
p552
aS'467663'
p553
aS'467663'
p554
aS'467663'
p555
aS'467663'
p556
aS'467663'
p557
aS'467663'
p558
aS'467663'
p559
aS'467663'
p560
aS'467663'
p561
aS'467663'
p562
aS'467663'
p563
aS'467663'
p564
aS'467663'
p565
aS'467663'
p566
aS'467663'
p567
aS'467663'
p568
aS'467663'
p569
aS'467663'
p570
aS'467663'
p571
aS'467663'
p572
aS'467663'
p573
aS'467663'
p574
aS'467663'
p575
aS'467663'
p576
aS'467663'
p577
aS'467663'
p578
aS'467663'
p579
aS'467663'
p580
aS'467663'
p581
aS'467663'
p582
aS'467663'
p583
aS'467663'
p584
aS'467663'
p585
aS'467663'
p586
aS'467663'
p587
aS'467663'
p588
aS'467663'
p589
aS'467663'
p590
aS'467663'
p591
aS'467663'
p592
aS'467663'
p593
aS'467663'
p594
aS'467663'
p595
aS'467663'
p596
aS'467663'
p597
aS'467663'
p598
aS'467663'
p599
aS'467663'
p600
aS'467663'
p601
aS'467663'
p602
aS'467663'
p603
aS'467663'
p604
aS'467663'
p605
aS'467663'
p606
aS'467663'
p607
aS'467663'
p608
aS'467663'
p609
aS'467663'
p610
aS'467663'
p611
aS'467663'
p612
aS'467663'
p613
aS'467663'
p614
aS'467663'
p615
aS'467663'
p616
aS'467623'
p617
aS'467663'
p618
aS'467623'
p619
aS'467663'
p620
aS'467623'
p621
aS'467663'
p622
aS'467623'
p623
aS'467663'
p624
aS'467623'
p625
aS'467623'
p626
aS'467663'
p627
aS'466623'
p628
aS'467663'
p629
aS'466623'
p630
aS'467663'
p631
aS'466623'
p632
aS'467663'
p633
aS'466623'
p634
aS'467623'
p635
aS'466623'
p636
aS'467623'
p637
aS'466623'
p638
aS'467623'
p639
aS'466623'
p640
aS'466623'
p641
aS'467623'
p642
aS'466623'
p643
aS'467623'
p644
aS'466223'
p645
aS'467623'
p646
aS'466223'
p647
aS'466623'
p648
aS'466223'
p649
aS'466623'
p650
aS'466223'
p651
aS'466223'
p652
aS'466623'
p653
aS'466223'
p654
aS'466623'
p655
aS'466223'
p656
aS'466623'
p657
aS'466223'
p658
aS'466623'
p659
aS'466223'
p660
aS'466623'
p661
aS'466223'
p662
aS'466223'
p663
aS'466623'
p664
aS'466223'
p665
aS'466623'
p666
aS'466223'
p667
aS'466223'
p668
aS'466223'
p669
aS'466223'
p670
aS'466223'
p671
aS'466223'
p672
aS'466223'
p673
aS'466223'
p674
aS'466223'
p675
aS'466223'
p676
aS'466223'
p677
aS'466223'
p678
aS'466223'
p679
aS'466223'
p680
aS'466223'
p681
aS'466223'
p682
aS'466223'
p683
aS'466223'
p684
aS'466223'
p685
aS'466223'
p686
aS'466223'
p687
aS'466223'
p688
aS'466223'
p689
aS'466223'
p690
aS'466223'
p691
aS'466223'
p692
aS'466223'
p693
aS'466223'
p694
aS'466223'
p695
aS'466223'
p696
aS'466223'
p697
aS'466223'
p698
aS'466223'
p699
aS'466223'
p700
aS'466223'
p701
aS'466223'
p702
aS'466223'
p703
aS'466223'
p704
aS'466223'
p705
aS'466223'
p706
aS'466223'
p707
aS'466223'
p708
aS'466223'
p709
aS'466223'
p710
aS'466223'
p711
aS'466223'
p712
aS'466223'
p713
aS'466223'
p714
asg117
(lp715
I1
aI1
aI1
aI1
aI1
aI1
aI1
aI1
aI1
aI1
aI1
aI1
aI1
aI1
aI1
aI1
aI1
aI1
aI1
aI1
aI1
aI1
aI1
aI1
aI1
aI1
aI1
aI1
aI1
aI1
aI1
aI1
aI1
aI1
aI1
aI1
aI1
aI1
aI1
aI1
aI1
aI1
aI1
aI1
aI1
aI1
aI1
aI1
aI1
aI1
aI1
aI1
aI1
aI1
aI1
aI1
aI1
aI1
aI1
aI1
aI1
aI1
aI1
aI1
aI1
aI1
aI1
aI1
aI1
aI1
aI1
aI1
aI1
aI1
aI1
aI1
aI1
aI1
aI1
aI1
aI1
aI1
aI1
aI1
aI1
aI1
aI1
aI1
aI1
aI1
aI1
aI1
aI1
aI1
aI1
aI1
aI1
aI1
aI1
aI1
aI1
aI1
aI1
aI1
aI1
aI1
aI1
aI1
aI1
aI1
aI1
aI1
aI1
aI1
aI1
aI1
aI1
aI1
aI1
aI1
aI1
aI1
aI1
aI1
aI1
aI1
aI1
aI1
aI1
aI1
aI1
aI1
aI1
aI1
aI1
aI1
aI1
aI1
aI1
aI1
aI1
aI1
aI1
aI1
aI1
aI1
aI1
aI1
aI1
aI1
aI1
aI1
aI1
aI1
aI1
aI1
aI1
aI1
aI1
aI1
aI1
aI1
aI1
aI1
aI1
aI1
aI1
aI1
aI1
aI1
aI1
aI1
aI1
aI1
aI1
aI1
aI1
aI1
aI1
aI1
aI1
aI1
aI1
aI1
aI1
aI1
aI1
aI1
aI1
asg131
(lp716
S' '
aS' '
aS' '
aS' '
aS' '
aS' '
aS' '
aS' '
aS' '
aS' '
aS' '
aS' '
aS' '
aS' '
aS' '
aS' '
aS' '
aS' '
aS' '
aS' '
aS' '
aS' '
aS' '
aS' '
aS' '
aS' '
aS' '
aS' '
aS' '
aS' '
aS' '
aS' '
aS' '
aS' '
aS' '
aS' '
aS' '
aS' '
aS' '
aS' '
aS' '
aS' '
aS' '
aS' '
aS' '
aS' '
aS' '
aS' '
aS' '
aS' '
aS' '
aS' '
aS' '
aS' '
aS' '
aS' '
aS' '
aS' '
aS' '
aS' '
aS' '
aS' '
aS' '
aS' '
aS' '
aS' '
aS' '
aS' '
aS' '
aS' '
aS' '
aS' '
aS' '
aS' '
aS' '
aS' '
aS' '
aS' '
aS' '
aS' '
aS' '
aS' '
aS' '
aS' '
aS' '
aS' '
aS' '
aS' '
aS' '
aS' '
aS' '
aS' '
aS' '
aS' '
aS' '
aS' '
aS' '
aS' '
aS' '
aS' '
aS' '
aS' '
aS' '
aS' '
aS' '
aS' '
aS' '
aS' '
aS' '
aS' '
aS' '
aS' '
aS' '
aS' '
aS' '
aS' '
aS' '
aS' '
aS' '
aS' '
aS' '
aS' '
aS' '
aS' '
aS' '
aS' '
aS' '
aS' '
aS' '
aS' '
aS' '
aS' '
aS' '
aS' '
aS' '
aS' '
aS' '
aS' '
aS' '
aS' '
aS' '
aS' '
aS' '
aS' '
aS' '
aS' '
aS' '
aS' '
aS' '
aS' '
aS' '
aS' '
aS' '
aS' '
aS' '
aS' '
aS' '
aS' '
aS' '
aS' '
aS' '
aS' '
aS' '
aS' '
aS' '
aS' '
aS' '
aS' '
aS' '
aS' '
aS' '
aS' '
aS' '
aS' '
aS' '
aS' '
aS' '
aS' '
aS' '
aS' '
aS' '
aS' '
aS' '
aS' '
aS' '
aS' '
aS' '
aS' '
aS' '
asg124
(lp717
F-0.0035000000000000001
aF-0.0035000000000000001
aF-0.0035000000000000001
aF-0.0035000000000000001
aF-0.0035000000000000001
aF-0.0035000000000000001
aF-0.0035000000000000001
aF-0.0035000000000000001
aF-0.00298
aF-0.0035000000000000001
aF-0.0033500000000000001
aF-0.0035000000000000001
aF-0.00363
aF-0.0035000000000000001
aF-0.0030500000000000002
aF-0.0035000000000000001
aF-0.0034099999999999998
aF-0.0035000000000000001
aF-0.0035000000000000001
aF-0.00298
aF-0.0033500000000000001
aF-0.0033500000000000001
aF-0.00329
aF-0.00363
aF-0.0032599999999999999
aF-0.0030500000000000002
aF-0.0033500000000000001
aF-0.0034099999999999998
aF-0.0035100000000000001
aF-0.0034099999999999998
aF-0.0035000000000000001
aF-0.00362
aF-0.0033500000000000001
aF-0.0035699999999999998
aF-0.00329
aF-0.0035899999999999999
aF-0.0032599999999999999
aF-0.0035799999999999998
aF-0.0033500000000000001
aF-0.00349
aF-0.0035100000000000001
aF-0.0034399999999999999
aF-0.0034099999999999998
aF-0.00331
aF-0.00362
aF-0.0030899999999999999
aF-0.0035699999999999998
aF-0.0020300000000000001
aF-0.0035899999999999999
aF-0.00266
aF-0.0035799999999999998
aF-0.0030100000000000001
aF-0.00349
aF-0.0034399999999999999
aF-0.0020999999999999999
aF-0.00331
aF-0.0023999999999999998
aF-0.0030899999999999999
aF-0.0026199999999999999
aF-0.0020300000000000001
aF-0.0025300000000000001
aF-0.00266
aF-0.00266
aF-0.0025899999999999999
aF-0.0030100000000000001
aF-0.0025400000000000002
aF-0.0025999999999999999
aF-0.0020999999999999999
aF-0.0024199999999999998
aF-0.0023999999999999998
aF-0.0025500000000000002
aF-0.0026199999999999999
aF-0.0025400000000000002
aF-0.0025300000000000001
aF-0.0025000000000000001
aF-0.00266
aF-0.0025799999999999998
aF-0.0025899999999999999
aF-0.0025899999999999999
aF-0.0025400000000000002
aF-0.00264
aF-0.0025999999999999999
aF-0.0026900000000000001
aF-0.0027399999999999998
aF-0.0024199999999999998
aF-0.0028700000000000002
aF-0.0025500000000000002
aF-0.00265
aF-0.0025400000000000002
aF-0.0027899999999999999
aF-0.0025000000000000001
aF-0.00313
aF-0.0025799999999999998
aF-0.00314
aF-0.0025899999999999999
aF-0.0027799999999999999
aF-0.00264
aF-0.0028800000000000002
aF-0.0026900000000000001
aF-0.0026800000000000001
aF-0.0030000000000000001
aF-0.0027399999999999998
aF-0.0030000000000000001
aF-0.0028700000000000002
aF-0.0030000000000000001
aF-0.00265
aF-0.0030000000000000001
aF-0.0027899999999999999
aF-0.0030000000000000001
aF-0.00313
aF-0.0030000000000000001
aF-0.00314
aF-0.0030000000000000001
aF-0.0027799999999999999
aF-0.0030000000000000001
aF-0.0030000000000000001
aF-0.0028800000000000002
aF-0.0030000000000000001
aF-0.0026800000000000001
aF-0.0030000000000000001
aF-0.0030000000000000001
aF-0.0030000000000000001
aF-0.0030000000000000001
aF-0.0030000000000000001
aF-0.0030000000000000001
aF-0.0030000000000000001
aF-0.0030000000000000001
aF-0.0030000000000000001
aF-0.0030000000000000001
aF-0.0030000000000000001
aF-0.0030000000000000001
aF-0.0030000000000000001
aF-0.0030000000000000001
aF-0.0030000000000000001
aF-0.0030000000000000001
aF-0.0030000000000000001
aF-0.0030000000000000001
aF-0.0030000000000000001
aF-0.0030000000000000001
aF-0.0030000000000000001
aF-0.0030000000000000001
aF-0.0030000000000000001
aF-0.0030000000000000001
aF-0.0030000000000000001
aF-0.0030000000000000001
aF-0.0030000000000000001
aF-0.0030000000000000001
aF-0.0030000000000000001
aF-0.0030000000000000001
aF-0.0030000000000000001
aF-0.0030000000000000001
aF-0.0030000000000000001
aF-0.0030000000000000001
aF-0.0030000000000000001
aF-0.0030000000000000001
aF-0.0030000000000000001
aF-0.0030000000000000001
aF-0.0030000000000000001
aF-0.0030000000000000001
aF-0.0030000000000000001
aF-0.0030000000000000001
aF-0.0030000000000000001
aF-0.0030000000000000001
aF-0.0030000000000000001
aF-0.0030000000000000001
aF-0.0030000000000000001
aF-0.0030000000000000001
aF-0.0030000000000000001
aF-0.0030000000000000001
aF-0.0030000000000000001
aF-0.0030000000000000001
aF-0.0030000000000000001
aF-0.0030000000000000001
aF-0.0030000000000000001
aF-0.0030000000000000001
aF-0.0030000000000000001
aF-0.0030000000000000001
aF-0.0030000000000000001
aF-0.0030000000000000001
aF-0.0030000000000000001
aF-0.0030000000000000001
aF-0.0030000000000000001
aF-0.0030000000000000001
aF-0.0030000000000000001
aF-0.0030000000000000001
aF-0.0030000000000000001
aF-0.0030000000000000001
aF-0.0030000000000000001
aF-0.0030000000000000001
asg128
(lp718
S'     P 27      '
p719
aS'     P 32      '
p720
aS'     P 26      '
p721
aS'     P 31      '
p722
aS'     P 25      '
p723
aS'     P 30      '
p724
aS'     P 24      '
p725
aS'     P 29      '
p726
aS'     P 23      '
p727
aS'     P 28      '
p728
aS'     P 22      '
p729
aS'     P 27      '
p730
aS'     P 21      '
p731
aS'     P 26      '
p732
aS'     P 20      '
p733
aS'     P 25      '
p734
aS'     P 19      '
p735
aS'     P 24      '
p736
aS'     P 18      '
p737
aS'     P 23      '
p738
aS'     P 17      '
p739
aS'     P 22      '
p740
aS'     P 16      '
p741
aS'     P 21      '
p742
aS'     P 15      '
p743
aS'     P 20      '
p744
aS'     P 14      '
p745
aS'     P 19      '
p746
aS'     P 13      '
p747
aS'     P 12      '
p748
aS'     P 18      '
p749
aS'     P 11      '
p750
aS'     P 17      '
p751
aS'     P 10      '
p752
aS'     P 16      '
p753
aS'     P  9      '
p754
aS'     P 15      '
p755
aS'     P  8      '
p756
aS'     P 14      '
p757
aS'     P  7      '
p758
aS'     P 13      '
p759
aS'     P  6      '
p760
aS'     P 12      '
p761
aS'     P  5      '
p762
aS'     P 11      '
p763
aS'     P  4      '
p764
aS'     P 10      '
p765
aS'     P  3      '
p766
aS'     P  9      '
p767
aS'     P  2      '
p768
aS'     P  8      '
p769
aS'     P  1      '
p770
aS'     P  7      '
p771
aS'     P  6      '
p772
aS'     R  0      '
p773
aS'     P  5      '
p774
aS'     R  1      '
p775
aS'     P  4      '
p776
aS'     R  2      '
p777
aS'     P  3      '
p778
aS'     R  3      '
p779
aS'     R  4      '
p780
aS'     P  2      '
p781
aS'     R  5      '
p782
aS'     P  1      '
p783
aS'     R  6      '
p784
aS'     R  7      '
p785
aS'     R  0      '
p786
aS'     R  8      '
p787
aS'     R  1      '
p788
aS'     R  9      '
p789
aS'     R  2      '
p790
aS'     R 10      '
p791
aS'     R  3      '
p792
aS'     R 11      '
p793
aS'     R  4      '
p794
aS'     R 12      '
p795
aS'     R  5      '
p796
aS'     R 13      '
p797
aS'     R  6      '
p798
aS'     R 14      '
p799
aS'     R  7      '
p800
aS'     R 15      '
p801
aS'     R 16      '
p802
aS'     R  8      '
p803
aS'     R 17      '
p804
aS'     R  9      '
p805
aS'     R 18      '
p806
aS'     R 10      '
p807
aS'     R 19      '
p808
aS'     R 11      '
p809
aS'     R 20      '
p810
aS'     R 12      '
p811
aS'     R 21      '
p812
aS'     R 13      '
p813
aS'     R 22      '
p814
aS'     R 14      '
p815
aS'     R 23      '
p816
aS'     R 15      '
p817
aS'     R 24      '
p818
aS'     R 25      '
p819
aS'     R 16      '
p820
aS'     R 26      '
p821
aS'     R 17      '
p822
aS'     R 27      '
p823
aS'     R 18      '
p824
aS'     R 28      '
p825
aS'     R 19      '
p826
aS'     R 29      '
p827
aS'     R 20      '
p828
aS'     R 30      '
p829
aS'     R 21      '
p830
aS'     R 31      '
p831
aS'     R 22      '
p832
aS'     R 32      '
p833
aS'     R 33      '
p834
aS'     R 23      '
p835
aS'     R 34      '
p836
aS'     R 24      '
p837
aS'     R 35      '
p838
aS'     R 25      '
p839
aS'     R 36      '
p840
aS'     R 26      '
p841
aS'     R 37      '
p842
aS'     R 27      '
p843
aS'     R 38      '
p844
aS'     R 39      '
p845
aS'     R 28      '
p846
aS'     R 40      '
p847
aS'     R 29      '
p848
aS'     R 41      '
p849
aS'     R 30      '
p850
aS'     R 42      '
p851
aS'     R 31      '
p852
aS'     R 43      '
p853
aS'     R 32      '
p854
aS'     R 44      '
p855
aS'     R 45      '
p856
aS'     R 33      '
p857
aS'     R 46      '
p858
aS'     R 34      '
p859
aS'     R 47      '
p860
aS'     R 35      '
p861
aS'     R 48      '
p862
aS'     R 49      '
p863
aS'     R 36      '
p864
aS'     R 50      '
p865
aS'     R 37      '
p866
aS'     R 51      '
p867
aS'     R 38      '
p868
aS'     R 52      '
p869
aS'     R 53      '
p870
aS'     R 39      '
p871
aS'     R 54      '
p872
aS'     R 40      '
p873
aS'     R 55      '
p874
aS'     R 41      '
p875
aS'     R 56      '
p876
aS'     R 57      '
p877
aS'     R 42      '
p878
aS'     R 58      '
p879
aS'     R 43      '
p880
aS'     R 59      '
p881
aS'     R 60      '
p882
aS'     R 44      '
p883
aS'     R 45      '
p884
aS'     R 46      '
p885
aS'     R 47      '
p886
aS'     R 48      '
p887
aS'     R 49      '
p888
aS'     R 50      '
p889
aS'     R 51      '
p890
aS'     R 52      '
p891
aS'     R 53      '
p892
aS'     R 54      '
p893
aS'     R 55      '
p894
aS'     R 56      '
p895
aS'     R 57      '
p896
aS'     R 58      '
p897
aS'     R 59      '
p898
aS'     R 60      '
p899
aS'     R 61      '
p900
aS'     R 62      '
p901
aS'     R 63      '
p902
aS'     R 64      '
p903
aS'     R 65      '
p904
aS'     R 66      '
p905
aS'     R 67      '
p906
aS'     R 68      '
p907
asg127
(lp908
S'               '
p909
aS'               '
p910
aS'               '
p911
aS'               '
p912
aS'               '
p913
aS'               '
p914
aS'               '
p915
aS'               '
p916
aS'               '
p917
aS'               '
p918
aS'               '
p919
aS'               '
p920
aS'               '
p921
aS'               '
p922
aS'               '
p923
aS'               '
p924
aS'               '
p925
aS'               '
p926
aS'               '
p927
aS'               '
p928
aS'               '
p929
aS'               '
p930
aS'               '
p931
aS'               '
p932
aS'               '
p933
aS'               '
p934
aS'               '
p935
aS'               '
p936
aS'               '
p937
aS'               '
p938
aS'               '
p939
aS'               '
p940
aS'               '
p941
aS'               '
p942
aS'               '
p943
aS'               '
p944
aS'               '
p945
aS'               '
p946
aS'               '
p947
aS'               '
p948
aS'               '
p949
aS'               '
p950
aS'               '
p951
aS'               '
p952
aS'               '
p953
aS'               '
p954
aS'               '
p955
aS'               '
p956
aS'               '
p957
aS'               '
p958
aS'               '
p959
aS'               '
p960
aS'               '
p961
aS'               '
p962
aS'               '
p963
aS'               '
p964
aS'               '
p965
aS'               '
p966
aS'               '
p967
aS'               '
p968
aS'               '
p969
aS'               '
p970
aS'               '
p971
aS'               '
p972
aS'               '
p973
aS'               '
p974
aS'               '
p975
aS'               '
p976
aS'               '
p977
aS'               '
p978
aS'               '
p979
aS'               '
p980
aS'               '
p981
aS'               '
p982
aS'               '
p983
aS'               '
p984
aS'               '
p985
aS'               '
p986
aS'               '
p987
aS'               '
p988
aS'               '
p989
aS'               '
p990
aS'               '
p991
aS'               '
p992
aS'               '
p993
aS'               '
p994
aS'               '
p995
aS'               '
p996
aS'               '
p997
aS'               '
p998
aS'               '
p999
aS'               '
p1000
aS'               '
p1001
aS'               '
p1002
aS'               '
p1003
aS'               '
p1004
aS'               '
p1005
aS'               '
p1006
aS'               '
p1007
aS'               '
p1008
aS'               '
p1009
aS'               '
p1010
aS'               '
p1011
aS'               '
p1012
aS'               '
p1013
aS'               '
p1014
aS'               '
p1015
aS'               '
p1016
aS'               '
p1017
aS'               '
p1018
aS'               '
p1019
aS'               '
p1020
aS'               '
p1021
aS'               '
p1022
aS'               '
p1023
aS'               '
p1024
aS'               '
p1025
aS'               '
p1026
aS'               '
p1027
aS'               '
p1028
aS'               '
p1029
aS'               '
p1030
aS'               '
p1031
aS'               '
p1032
aS'               '
p1033
aS'               '
p1034
aS'               '
p1035
aS'               '
p1036
aS'               '
p1037
aS'               '
p1038
aS'               '
p1039
aS'               '
p1040
aS'               '
p1041
aS'               '
p1042
aS'               '
p1043
aS'               '
p1044
aS'               '
p1045
aS'               '
p1046
aS'               '
p1047
aS'               '
p1048
aS'               '
p1049
aS'               '
p1050
aS'               '
p1051
aS'               '
p1052
aS'               '
p1053
aS'               '
p1054
aS'               '
p1055
aS'               '
p1056
aS'               '
p1057
aS'               '
p1058
aS'               '
p1059
aS'               '
p1060
aS'               '
p1061
aS'               '
p1062
aS'               '
p1063
aS'               '
p1064
aS'               '
p1065
aS'               '
p1066
aS'               '
p1067
aS'               '
p1068
aS'               '
p1069
aS'               '
p1070
aS'               '
p1071
aS'               '
p1072
aS'               '
p1073
aS'               '
p1074
aS'               '
p1075
aS'               '
p1076
aS'               '
p1077
aS'               '
p1078
aS'               '
p1079
aS'               '
p1080
aS'               '
p1081
aS'               '
p1082
aS'               '
p1083
aS'               '
p1084
aS'               '
p1085
aS'               '
p1086
aS'               '
p1087
aS'               '
p1088
aS'               '
p1089
aS'               '
p1090
aS'               '
p1091
aS'               '
p1092
aS'               '
p1093
aS'               '
p1094
aS'               '
p1095
aS'               '
p1096
aS'               '
p1097
asg116
(lp1098
I5
aI5
aI5
aI5
aI5
aI5
aI5
aI5
aI5
aI5
aI5
aI5
aI5
aI5
aI5
aI5
aI5
aI5
aI5
aI5
aI5
aI5
aI5
aI5
aI5
aI5
aI5
aI5
aI5
aI5
aI5
aI5
aI5
aI5
aI5
aI5
aI5
aI5
aI5
aI5
aI5
aI5
aI5
aI5
aI5
aI5
aI5
aI5
aI5
aI5
aI5
aI5
aI5
aI5
aI5
aI5
aI5
aI5
aI5
aI5
aI5
aI5
aI5
aI5
aI5
aI5
aI5
aI5
aI5
aI5
aI5
aI5
aI5
aI5
aI5
aI5
aI5
aI5
aI5
aI5
aI5
aI5
aI5
aI5
aI5
aI5
aI5
aI5
aI5
aI5
aI5
aI5
aI5
aI5
aI5
aI5
aI5
aI5
aI5
aI5
aI5
aI5
aI5
aI5
aI5
aI5
aI5
aI5
aI5
aI5
aI5
aI5
aI5
aI5
aI5
aI5
aI5
aI5
aI5
aI5
aI5
aI5
aI5
aI5
aI5
aI5
aI5
aI5
aI5
aI5
aI5
aI5
aI5
aI5
aI5
aI5
aI5
aI5
aI5
aI5
aI5
aI5
aI5
aI5
aI5
aI5
aI5
aI5
aI5
aI5
aI5
aI5
aI5
aI5
aI5
aI5
aI5
aI5
aI5
aI5
aI5
aI5
aI5
aI5
aI5
aI5
aI5
aI5
aI5
aI5
aI5
aI5
aI5
aI5
aI5
aI5
aI5
aI5
aI5
aI5
aI5
aI5
aI5
aI5
aI5
aI5
aI5
aI5
aI5
asg126
(lp1099
S'              1'
p1100
aS'              0'
p1101
aS'              1'
p1102
aS'              0'
p1103
aS'              1'
p1104
aS'              0'
p1105
aS'              1'
p1106
aS'              0'
p1107
aS'              1'
p1108
aS'              0'
p1109
aS'              1'
p1110
aS'              0'
p1111
aS'              1'
p1112
aS'              0'
p1113
aS'              1'
p1114
aS'              0'
p1115
aS'              1'
p1116
aS'              0'
p1117
aS'              1'
p1118
aS'              0'
p1119
aS'              1'
p1120
aS'              0'
p1121
aS'              1'
p1122
aS'              0'
p1123
aS'              1'
p1124
aS'              0'
p1125
aS'              1'
p1126
aS'              0'
p1127
aS'              1'
p1128
aS'              1'
p1129
aS'              0'
p1130
aS'              1'
p1131
aS'              0'
p1132
aS'              1'
p1133
aS'              0'
p1134
aS'              1'
p1135
aS'              0'
p1136
aS'              1'
p1137
aS'              0'
p1138
aS'              1'
p1139
aS'              0'
p1140
aS'              1'
p1141
aS'              0'
p1142
aS'              1'
p1143
aS'              0'
p1144
aS'              1'
p1145
aS'              0'
p1146
aS'              1'
p1147
aS'              0'
p1148
aS'              1'
p1149
aS'              0'
p1150
aS'              1'
p1151
aS'              0'
p1152
aS'              0'
p1153
aS'              1'
p1154
aS'              0'
p1155
aS'              1'
p1156
aS'              0'
p1157
aS'              1'
p1158
aS'              0'
p1159
aS'              1'
p1160
aS'              1'
p1161
aS'              0'
p1162
aS'              1'
p1163
aS'              0'
p1164
aS'              1'
p1165
aS'              1'
p1166
aS'              0'
p1167
aS'              1'
p1168
aS'              0'
p1169
aS'              1'
p1170
aS'              0'
p1171
aS'              1'
p1172
aS'              0'
p1173
aS'              1'
p1174
aS'              0'
p1175
aS'              1'
p1176
aS'              0'
p1177
aS'              1'
p1178
aS'              0'
p1179
aS'              1'
p1180
aS'              0'
p1181
aS'              1'
p1182
aS'              1'
p1183
aS'              0'
p1184
aS'              1'
p1185
aS'              0'
p1186
aS'              1'
p1187
aS'              0'
p1188
aS'              1'
p1189
aS'              0'
p1190
aS'              1'
p1191
aS'              0'
p1192
aS'              1'
p1193
aS'              0'
p1194
aS'              1'
p1195
aS'              0'
p1196
aS'              1'
p1197
aS'              0'
p1198
aS'              1'
p1199
aS'              1'
p1200
aS'              0'
p1201
aS'              1'
p1202
aS'              0'
p1203
aS'              1'
p1204
aS'              0'
p1205
aS'              1'
p1206
aS'              0'
p1207
aS'              1'
p1208
aS'              0'
p1209
aS'              1'
p1210
aS'              0'
p1211
aS'              1'
p1212
aS'              0'
p1213
aS'              1'
p1214
aS'              1'
p1215
aS'              0'
p1216
aS'              1'
p1217
aS'              0'
p1218
aS'              1'
p1219
aS'              0'
p1220
aS'              1'
p1221
aS'              0'
p1222
aS'              1'
p1223
aS'              0'
p1224
aS'              1'
p1225
aS'              1'
p1226
aS'              0'
p1227
aS'              1'
p1228
aS'              0'
p1229
aS'              1'
p1230
aS'              0'
p1231
aS'              1'
p1232
aS'              0'
p1233
aS'              1'
p1234
aS'              0'
p1235
aS'              1'
p1236
aS'              1'
p1237
aS'              0'
p1238
aS'              1'
p1239
aS'              0'
p1240
aS'              1'
p1241
aS'              0'
p1242
aS'              1'
p1243
aS'              1'
p1244
aS'              0'
p1245
aS'              1'
p1246
aS'              0'
p1247
aS'              1'
p1248
aS'              0'
p1249
aS'              1'
p1250
aS'              1'
p1251
aS'              0'
p1252
aS'              1'
p1253
aS'              0'
p1254
aS'              1'
p1255
aS'              0'
p1256
aS'              1'
p1257
aS'              1'
p1258
aS'              0'
p1259
aS'              1'
p1260
aS'              0'
p1261
aS'              1'
p1262
aS'              1'
p1263
aS'              0'
p1264
aS'              0'
p1265
aS'              0'
p1266
aS'              0'
p1267
aS'              0'
p1268
aS'              0'
p1269
aS'              0'
p1270
aS'              0'
p1271
aS'              0'
p1272
aS'              0'
p1273
aS'              0'
p1274
aS'              0'
p1275
aS'              0'
p1276
aS'              0'
p1277
aS'              0'
p1278
aS'              0'
p1279
aS'              0'
p1280
aS'              0'
p1281
aS'              0'
p1282
aS'              0'
p1283
aS'              0'
p1284
aS'              0'
p1285
aS'              0'
p1286
aS'              0'
p1287
aS'              0'
p1288
asg133
(lp1289
F55
aF65
aF53
aF63
aF51
aF61
aF49
aF59
aF47
aF57
aF45
aF55
aF43
aF53
aF41
aF51
aF39
aF49
aF37
aF47
aF35
aF45
aF33
aF43
aF31
aF41
aF29
aF39
aF27
aF25
aF37
aF23
aF35
aF21
aF33
aF19
aF31
aF17
aF29
aF15
aF27
aF13
aF25
aF11
aF23
aF9
aF21
aF7
aF19
aF5
aF17
aF3
aF15
aF13
aF1
aF11
aF3
aF9
aF5
aF7
aF7
aF9
aF5
aF11
aF3
aF13
aF15
aF1
aF17
aF3
aF19
aF5
aF21
aF7
aF23
aF9
aF25
aF11
aF27
aF13
aF29
aF15
aF31
aF33
aF17
aF35
aF19
aF37
aF21
aF39
aF23
aF41
aF25
aF43
aF27
aF45
aF29
aF47
aF31
aF49
aF51
aF33
aF53
aF35
aF55
aF37
aF57
aF39
aF59
aF41
aF61
aF43
aF63
aF45
aF65
aF67
aF47
aF69
aF49
aF71
aF51
aF73
aF53
aF75
aF55
aF77
aF79
aF57
aF81
aF59
aF83
aF61
aF85
aF63
aF87
aF65
aF89
aF91
aF67
aF93
aF69
aF95
aF71
aF97
aF99
aF73
aF101
aF75
aF103
aF77
aF105
aF107
aF79
aF109
aF81
aF111
aF83
aF113
aF115
aF85
aF117
aF87
aF119
aF121
aF89
aF91
aF93
aF95
aF97
aF99
aF101
aF103
aF105
aF107
aF109
aF111
aF113
aF115
aF117
aF119
aF121
aF123
aF125
aF127
aF129
aF131
aF133
aF135
aF137
asg118
(lp1290
F2002.115
aF2003.6678999999999
aF2006.7836
aF2008.5254
aF2011.4211
aF2013.3524
aF2016.0272
aF2018.1487999999999
aF2020.6017999999999
aF2022.9143999999999
aF2025.1447000000001
aF2027.6491000000001
aF2029.6559
aF2032.3527999999999
aF2034.1351999999999
aF2037.0253
aF2038.5824
aF2041.6664000000001
aF2042.9974
aF2046.2761
aF2047.3800000000001
aF2050.8541
aF2051.7301000000002
aF2055.4002999999998
aF2056.0475999999999
aF2059.9146999999998
aF2060.3321999999998
aF2064.3969000000002
aF2064.5839000000001
aF2068.8024999999998
aF2068.8469
aF2072.9879000000001
aF2073.2646
aF2077.1399000000001
aF2077.6496999999999
aF2081.2583
aF2082.0021999999999
aF2085.3431
aF2086.3218999999999
aF2089.3939999999998
aF2090.6087000000002
aF2093.4110000000001
aF2094.8622999999998
aF2097.3937999999998
aF2099.0826999999999
aF2101.3424
aF2103.2696999999998
aF2105.2566000000002
aF2107.4232000000002
aF2109.1361999999999
aF2111.5430000000001
aF2112.9810000000002
aF2115.6289999999999
aF2119.681
aF2120.5661
aF2123.6988000000001
aF2124.306
aF2127.6824000000001
aF2128.0104999999999
aF2131.6316000000002
aF2131.6797000000001
aF2135.3132000000001
aF2135.5462000000002
aF2138.9110000000001
aF2139.4261000000001
aF2142.4729000000002
aF2145.9987999999998
aF2147.0810999999999
aF2149.4884999999999
aF2150.8560000000002
aF2152.9418999999998
aF2154.5956000000001
aF2156.3589000000002
aF2158.2997
aF2159.7392
aF2161.9681999999998
aF2163.0826999999999
aF2165.6010000000001
aF2166.3892999999998
aF2169.1979000000001
aF2169.6588999999999
aF2172.7588000000001
aF2172.8912
aF2176.0862000000002
aF2176.2835
aF2179.2438000000002
aF2179.7719000000002
aF2182.3636000000001
aF2183.2238000000002
aF2185.4457000000002
aF2186.6390000000001
aF2188.4899
aF2190.0174999999999
aF2191.4958999999999
aF2193.3591000000001
aF2194.4638
aF2196.6637000000001
aF2197.3932
aF2199.931
aF2200.2842000000001
aF2203.1365000000001
aF2203.1610000000001
aF2205.9499999999998
aF2206.3535000000002
aF2208.7244999999998
aF2209.5083
aF2211.4598999999998
aF2212.6253000000002
aF2214.1561000000002
aF2215.7044000000001
aF2216.8128000000002
aF2218.7455
aF2219.4301
aF2221.7483000000002
aF2222.0075999999999
aF2224.5454
aF2224.7127
aF2227.0430999999999
aF2227.6386000000002
aF2229.5007999999998
aF2230.5257999999999
aF2231.9182000000001
aF2233.3742999999999
aF2234.2950999999998
aF2236.1837999999998
aF2236.6315
aF2238.9272000000001
aF2238.9540999999999
aF2241.1821
aF2241.6853000000001
aF2243.3960000000002
aF2244.377
aF2245.5688
aF2247.0291999999999
aF2247.7002000000002
aF2249.6417000000001
aF2249.7903000000001
aF2251.8388
aF2252.2143999999998
aF2253.8456000000001
aF2254.7471999999998
aF2255.8105
aF2257.2397999999998
aF2257.7334000000001
aF2259.6142
aF2259.6921000000002
aF2261.4526999999998
aF2262.1041
aF2263.2487999999998
aF2264.4755
aF2265.0023000000001
aF2266.7130999999999
aF2266.8062
aF2268.3809999999999
aF2269.096
aF2270.0059000000001
aF2271.3449000000001
aF2271.5877
aF2273.1261
aF2273.5527000000002
aF2274.6212
aF2275.7192
aF2276.0726
aF2277.4803000000002
aF2277.8442
aF2279.9277999999999
aF2281.9695999999999
aF2283.9695000000002
aF2285.9274999999998
aF2287.8434000000002
aF2289.7168999999999
aF2291.5481
aF2293.3366999999998
aF2295.0826000000002
aF2296.7856000000002
aF2298.4456
aF2300.0625
aF2301.6361000000002
aF2303.1662999999999
aF2304.6529999999998
aF2306.0958999999998
aF2307.4949000000001
aF2308.8499999999999
aF2310.1608999999999
aF2311.4276
aF2312.6498000000001
aF2313.8274000000001
aF2314.9603000000002
aF2316.0484000000001
asg121
(lp1291
F0.047
aF0.042000000000000003
aF0.048000000000000001
aF0.042999999999999997
aF0.050000000000000003
aF0.042999999999999997
aF0.050999999999999997
aF0.044999999999999998
aF0.051999999999999998
aF0.045999999999999999
aF0.052999999999999999
aF0.047
aF0.053999999999999999
aF0.048000000000000001
aF0.055
aF0.050000000000000003
aF0.056000000000000001
aF0.050999999999999997
aF0.057000000000000002
aF0.051999999999999998
aF0.058000000000000003
aF0.052999999999999999
aF0.058999999999999997
aF0.053999999999999999
aF0.059999999999999998
aF0.055
aF0.060999999999999999
aF0.056000000000000001
aF0.060999999999999999
aF0.062
aF0.057000000000000002
aF0.063
aF0.058000000000000003
aF0.064000000000000001
aF0.058999999999999997
aF0.066000000000000003
aF0.059999999999999998
aF0.067000000000000004
aF0.060999999999999999
aF0.069000000000000006
aF0.060999999999999999
aF0.070000000000000007
aF0.062
aF0.072999999999999995
aF0.063
aF0.074999999999999997
aF0.064000000000000001
aF0.079000000000000001
aF0.066000000000000003
aF0.082000000000000003
aF0.067000000000000004
aF0.085999999999999993
aF0.069000000000000006
aF0.070000000000000007
aF0.085999999999999993
aF0.072999999999999995
aF0.082000000000000003
aF0.074999999999999997
aF0.079000000000000001
aF0.079000000000000001
aF0.074999999999999997
aF0.072999999999999995
aF0.082000000000000003
aF0.070000000000000007
aF0.085999999999999993
aF0.069000000000000006
aF0.067000000000000004
aF0.085999999999999993
aF0.066000000000000003
aF0.082000000000000003
aF0.064000000000000001
aF0.079000000000000001
aF0.063
aF0.074999999999999997
aF0.062
aF0.072999999999999995
aF0.060999999999999999
aF0.070000000000000007
aF0.060999999999999999
aF0.069000000000000006
aF0.059999999999999998
aF0.067000000000000004
aF0.058999999999999997
aF0.058000000000000003
aF0.066000000000000003
aF0.057000000000000002
aF0.064000000000000001
aF0.056000000000000001
aF0.063
aF0.055
aF0.062
aF0.053999999999999999
aF0.060999999999999999
aF0.052999999999999999
aF0.060999999999999999
aF0.051999999999999998
aF0.059999999999999998
aF0.050999999999999997
aF0.058999999999999997
aF0.050000000000000003
aF0.048000000000000001
aF0.058000000000000003
aF0.047
aF0.057000000000000002
aF0.045999999999999999
aF0.056000000000000001
aF0.044999999999999998
aF0.055
aF0.042999999999999997
aF0.053999999999999999
aF0.042999999999999997
aF0.052999999999999999
aF0.042000000000000003
aF0.051999999999999998
aF0.041000000000000002
aF0.041000000000000002
aF0.050999999999999997
aF0.041000000000000002
aF0.050000000000000003
aF0.041000000000000002
aF0.048000000000000001
aF0.041000000000000002
aF0.047
aF0.041000000000000002
aF0.045999999999999999
aF0.041000000000000002
aF0.041000000000000002
aF0.044999999999999998
aF0.041000000000000002
aF0.042999999999999997
aF0.041000000000000002
aF0.042999999999999997
aF0.041000000000000002
aF0.042000000000000003
aF0.041000000000000002
aF0.041000000000000002
aF0.041000000000000002
aF0.041000000000000002
aF0.041000000000000002
aF0.041000000000000002
aF0.041000000000000002
aF0.041000000000000002
aF0.041000000000000002
aF0.041000000000000002
aF0.041000000000000002
aF0.041000000000000002
aF0.041000000000000002
aF0.041000000000000002
aF0.041000000000000002
aF0.041000000000000002
aF0.041000000000000002
aF0.041000000000000002
aF0.041000000000000002
aF0.041000000000000002
aF0.041000000000000002
aF0.041000000000000002
aF0.041000000000000002
aF0.041000000000000002
aF0.041000000000000002
aF0.041000000000000002
aF0.041000000000000002
aF0.041000000000000002
aF0.041000000000000002
aF0.041000000000000002
aF0.041000000000000002
aF0.041000000000000002
aF0.041000000000000002
aF0.041000000000000002
aF0.041000000000000002
aF0.041000000000000002
aF0.041000000000000002
aF0.041000000000000002
aF0.041000000000000002
aF0.041000000000000002
aF0.041000000000000002
aF0.041000000000000002
aF0.041000000000000002
aF0.041000000000000002
aF0.041000000000000002
aF0.041000000000000002
aF0.041000000000000002
aF0.041000000000000002
aF0.041000000000000002
aF0.041000000000000002
aF0.041000000000000002
aF0.041000000000000002
aF0.041000000000000002
aF0.041000000000000002
aF0.041000000000000002
ass.